target datalayout = "e-m:e-p270:32:32-p271:32:32-p272:64:64-i64:64-i128:128-f80:128-n8:16:32:64-S128"
target triple = "x86_64-pc-linux-gnu"

; Function Attrs: nounwind uwtable
define internal void @scatter_partial_int64_3(ptr noundef %0, ptr noundef %1, i64 noundef %2, i64 noundef %3, i64 noundef %4, i64 noundef %5, i64 noundef %6, i64 noundef %7) #0 {
  %9 = alloca ptr, align 8
  %10 = alloca ptr, align 8
  %11 = alloca i64, align 8
  %12 = alloca i64, align 8
  %13 = alloca i64, align 8
  %14 = alloca i64, align 8
  %15 = alloca i64, align 8
  %16 = alloca i64, align 8
  %17 = alloca i64, align 8
  %18 = alloca i64, align 8
  %19 = alloca i64, align 8
  store ptr %0, ptr %9, align 8, !tbaa !8
  store ptr %1, ptr %10, align 8, !tbaa !8
  store i64 %2, ptr %11, align 8, !tbaa !21
  store i64 %3, ptr %12, align 8, !tbaa !21
  store i64 %4, ptr %13, align 8, !tbaa !21
  store i64 %5, ptr %14, align 8, !tbaa !21
  store i64 %6, ptr %15, align 8, !tbaa !21
  store i64 %7, ptr %16, align 8, !tbaa !21
  call void @llvm.lifetime.start.p0(i64 8, ptr %17) #4
  call void @llvm.lifetime.start.p0(i64 8, ptr %18) #4
  call void @llvm.lifetime.start.p0(i64 8, ptr %19) #4
  store i64 0, ptr %19, align 8, !tbaa !21
  br label %20

20:                                               ; preds = %63, %8
  %21 = load i64, ptr %19, align 8, !tbaa !21
  %22 = load i64, ptr %13, align 8, !tbaa !21
  %23 = icmp ult i64 %21, %22
  br i1 %23, label %24, label %78

24:                                               ; preds = %20
  store i64 0, ptr %18, align 8, !tbaa !21
  br label %25

25:                                               ; preds = %47, %24
  %26 = load i64, ptr %18, align 8, !tbaa !21
  %27 = load i64, ptr %12, align 8, !tbaa !21
  %28 = icmp ult i64 %26, %27
  br i1 %28, label %29, label %62

29:                                               ; preds = %25
  store i64 0, ptr %17, align 8, !tbaa !21
  br label %30

30:                                               ; preds = %38, %29
  %31 = load i64, ptr %17, align 8, !tbaa !21
  %32 = load i64, ptr %11, align 8, !tbaa !21
  %33 = icmp ult i64 %31, %32
  br i1 %33, label %34, label %46

34:                                               ; preds = %30
  %35 = load ptr, ptr %9, align 8, !tbaa !8
  %36 = load i64, ptr %35, align 8, !tbaa !21
  %37 = load ptr, ptr %10, align 8, !tbaa !8
  store i64 %36, ptr %37, align 8, !tbaa !21
  br label %38

38:                                               ; preds = %34
  %39 = load i64, ptr %17, align 8, !tbaa !21
  %40 = add i64 %39, 1
  store i64 %40, ptr %17, align 8, !tbaa !21
  %41 = load i64, ptr %14, align 8, !tbaa !21
  %42 = load ptr, ptr %10, align 8, !tbaa !8
  %43 = getelementptr inbounds i64, ptr %42, i64 %41
  store ptr %43, ptr %10, align 8, !tbaa !8
  %44 = load ptr, ptr %9, align 8, !tbaa !8
  %45 = getelementptr inbounds nuw i64, ptr %44, i32 1
  store ptr %45, ptr %9, align 8, !tbaa !8
  br label %30

46:                                               ; preds = %30
  br label %47

47:                                               ; preds = %46
  %48 = load i64, ptr %18, align 8, !tbaa !21
  %49 = add i64 %48, 1
  store i64 %49, ptr %18, align 8, !tbaa !21
  %50 = load i64, ptr %15, align 8, !tbaa !21
  %51 = load i64, ptr %11, align 8, !tbaa !21
  %52 = load i64, ptr %14, align 8, !tbaa !21
  %53 = mul nsw i64 %51, %52
  %54 = sub nsw i64 %50, %53
  %55 = load ptr, ptr %10, align 8, !tbaa !8
  %56 = getelementptr inbounds i64, ptr %55, i64 %54
  store ptr %56, ptr %10, align 8, !tbaa !8
  %57 = load i64, ptr %11, align 8, !tbaa !21
  %58 = sub i64 4, %57
  %59 = mul i64 1, %58
  %60 = load ptr, ptr %9, align 8, !tbaa !8
  %61 = getelementptr inbounds nuw i64, ptr %60, i64 %59
  store ptr %61, ptr %9, align 8, !tbaa !8
  br label %25

62:                                               ; preds = %25
  br label %63

63:                                               ; preds = %62
  %64 = load i64, ptr %19, align 8, !tbaa !21
  %65 = add i64 %64, 1
  store i64 %65, ptr %19, align 8, !tbaa !21
  %66 = load i64, ptr %16, align 8, !tbaa !21
  %67 = load i64, ptr %12, align 8, !tbaa !21
  %68 = load i64, ptr %15, align 8, !tbaa !21
  %69 = mul nsw i64 %67, %68
  %70 = sub nsw i64 %66, %69
  %71 = load ptr, ptr %10, align 8, !tbaa !8
  %72 = getelementptr inbounds i64, ptr %71, i64 %70
  store ptr %72, ptr %10, align 8, !tbaa !8
  %73 = load i64, ptr %12, align 8, !tbaa !21
  %74 = sub i64 4, %73
  %75 = mul i64 4, %74
  %76 = load ptr, ptr %9, align 8, !tbaa !8
  %77 = getelementptr inbounds nuw i64, ptr %76, i64 %75
  store ptr %77, ptr %9, align 8, !tbaa !8
  br label %20

78:                                               ; preds = %20
  call void @llvm.lifetime.end.p0(i64 8, ptr %19) #4
  call void @llvm.lifetime.end.p0(i64 8, ptr %18) #4
  call void @llvm.lifetime.end.p0(i64 8, ptr %17) #4
  ret void
}

; Function Attrs: nounwind uwtable
define i64 @zfp_decode_partial_block_strided_int64_3(ptr noundef %0, ptr noundef %1, i64 noundef %2, i64 noundef %3, i64 noundef %4, i64 noundef %5, i64 noundef %6, i64 noundef %7) #0 {
  %9 = alloca ptr, align 8
  %10 = alloca ptr, align 8
  %11 = alloca i64, align 8
  %12 = alloca i64, align 8
  %13 = alloca i64, align 8
  %14 = alloca i64, align 8
  %15 = alloca i64, align 8
  %16 = alloca i64, align 8
  %17 = alloca [64 x i64], align 256
  %18 = alloca i64, align 8
  store ptr %0, ptr %9, align 8, !tbaa !4
  store ptr %1, ptr %10, align 8, !tbaa !8
  store i64 %2, ptr %11, align 8, !tbaa !21
  store i64 %3, ptr %12, align 8, !tbaa !21
  store i64 %4, ptr %13, align 8, !tbaa !21
  store i64 %5, ptr %14, align 8, !tbaa !21
  store i64 %6, ptr %15, align 8, !tbaa !21
  store i64 %7, ptr %16, align 8, !tbaa !21
  call void @llvm.lifetime.start.p0(i64 512, ptr %17) #4
  call void @llvm.lifetime.start.p0(i64 8, ptr %18) #4
  %19 = load ptr, ptr %9, align 8, !tbaa !4
  %20 = getelementptr inbounds [64 x i64], ptr %17, i64 0, i64 0
  %21 = call i64 @zfp_decode_block_int64_3(ptr noundef %19, ptr noundef %20)
  store i64 %21, ptr %18, align 8, !tbaa !21
  %22 = getelementptr inbounds [64 x i64], ptr %17, i64 0, i64 0
  %23 = load ptr, ptr %10, align 8, !tbaa !8
  %24 = load i64, ptr %11, align 8, !tbaa !21
  %25 = load i64, ptr %12, align 8, !tbaa !21
  %26 = load i64, ptr %13, align 8, !tbaa !21
  %27 = load i64, ptr %14, align 8, !tbaa !21
  %28 = load i64, ptr %15, align 8, !tbaa !21
  %29 = load i64, ptr %16, align 8, !tbaa !21
  call void @scatter_partial_int64_3(ptr noundef %22, ptr noundef %23, i64 noundef %24, i64 noundef %25, i64 noundef %26, i64 noundef %27, i64 noundef %28, i64 noundef %29)
  %30 = load i64, ptr %18, align 8, !tbaa !21
  call void @llvm.lifetime.end.p0(i64 8, ptr %18) #4
  call void @llvm.lifetime.end.p0(i64 512, ptr %17) #4
  ret i64 %30
}